; Function Attrs: mustprogress nounwind uwtable
define hidden void @_ZNK5clang7targets23DarwinAArch64TargetInfo12getOSDefinesERKNS_11LangOptionsERKN4llvm6TripleERNS_12MacroBuilderE(ptr noundef nonnull align 8 dereferenceable(600) %0, ptr noundef nonnull align 8 dereferenceable(841) %1, ptr noundef nonnull align 8 dereferenceable(56) %2, ptr noundef nonnull align 8 dereferenceable(8) %3) unnamed_addr #1 align 2 {
  %5 = alloca %"class.llvm::Twine", align 8
  %6 = alloca %"class.llvm::Twine", align 8
  %7 = alloca %"class.llvm::Twine", align 8
  %8 = alloca %"class.llvm::Twine", align 8
  %9 = alloca %"class.llvm::Twine", align 8
  %10 = alloca %"class.llvm::Twine", align 8
  %11 = alloca %"class.llvm::Twine", align 8
  %12 = alloca %"class.llvm::Twine", align 8
  %13 = alloca %"class.llvm::Twine", align 8
  %14 = alloca %"class.llvm::Twine", align 8
  %15 = alloca %"class.llvm::Twine", align 8
  %16 = alloca %"class.llvm::Twine", align 8
  %17 = alloca %"class.llvm::Twine", align 8
  %18 = alloca %"class.llvm::Twine", align 8
  %19 = alloca %"class.llvm::Twine", align 8
  %20 = alloca %"class.llvm::Twine", align 8
  %21 = getelementptr inbounds nuw i8, ptr %5, i64 32
  %22 = getelementptr inbounds nuw i8, ptr %5, i64 33
  store i8 1, ptr %22, align 1
  store ptr @.str.553, ptr %5, align 8
  store i8 3, ptr %21, align 8
  %23 = getelementptr inbounds nuw i8, ptr %6, i64 32
  %24 = getelementptr inbounds nuw i8, ptr %6, i64 33
  store i8 1, ptr %24, align 1
  store ptr @.str.14, ptr %6, align 8
  store i8 3, ptr %23, align 8
  call void @_ZN5clang12MacroBuilder11defineMacroERKN4llvm5TwineES4_(ptr noundef nonnull align 8 dereferenceable(8) %3, ptr noundef nonnull align 8 dereferenceable(34) %5, ptr noundef nonnull align 8 dereferenceable(34) %6)
  %25 = call noundef zeroext i1 @_ZNK4llvm6Triple11isArch32BitEv(ptr noundef nonnull align 8 dereferenceable(56) %2) #23
  br i1 %25, label %26, label %31

26:                                               ; preds = %4
  %27 = getelementptr inbounds nuw i8, ptr %7, i64 32
  %28 = getelementptr inbounds nuw i8, ptr %7, i64 33
  store i8 1, ptr %28, align 1
  store ptr @.str.554, ptr %7, align 8
  store i8 3, ptr %27, align 8
  %29 = getelementptr inbounds nuw i8, ptr %8, i64 32
  %30 = getelementptr inbounds nuw i8, ptr %8, i64 33
  store i8 1, ptr %30, align 1
  store ptr @.str.14, ptr %8, align 8
  store i8 3, ptr %29, align 8
  call void @_ZN5clang12MacroBuilder11defineMacroERKN4llvm5TwineES4_(ptr noundef nonnull align 8 dereferenceable(8) %3, ptr noundef nonnull align 8 dereferenceable(34) %7, ptr noundef nonnull align 8 dereferenceable(34) %8)
  br label %36

31:                                               ; preds = %4
  %32 = getelementptr inbounds nuw i8, ptr %9, i64 32
  %33 = getelementptr inbounds nuw i8, ptr %9, i64 33
  store i8 1, ptr %33, align 1
  store ptr @.str.555, ptr %9, align 8
  store i8 3, ptr %32, align 8
  %34 = getelementptr inbounds nuw i8, ptr %10, i64 32
  %35 = getelementptr inbounds nuw i8, ptr %10, i64 33
  store i8 1, ptr %35, align 1
  store ptr @.str.14, ptr %10, align 8
  store i8 3, ptr %34, align 8
  call void @_ZN5clang12MacroBuilder11defineMacroERKN4llvm5TwineES4_(ptr noundef nonnull align 8 dereferenceable(8) %3, ptr noundef nonnull align 8 dereferenceable(34) %9, ptr noundef nonnull align 8 dereferenceable(34) %10)
  br label %36

36:                                               ; preds = %31, %26
  %37 = getelementptr inbounds nuw i8, ptr %11, i64 32
  %38 = getelementptr inbounds nuw i8, ptr %11, i64 33
  store i8 1, ptr %38, align 1
  store ptr @.str.556, ptr %11, align 8
  store i8 3, ptr %37, align 8
  %39 = getelementptr inbounds nuw i8, ptr %12, i64 32
  %40 = getelementptr inbounds nuw i8, ptr %12, i64 33
  store i8 1, ptr %40, align 1
  store ptr @.str.14, ptr %12, align 8
  store i8 3, ptr %39, align 8
  call void @_ZN5clang12MacroBuilder11defineMacroERKN4llvm5TwineES4_(ptr noundef nonnull align 8 dereferenceable(8) %3, ptr noundef nonnull align 8 dereferenceable(34) %11, ptr noundef nonnull align 8 dereferenceable(34) %12)
  %41 = getelementptr inbounds nuw i8, ptr %13, i64 32
  %42 = getelementptr inbounds nuw i8, ptr %13, i64 33
  store i8 1, ptr %42, align 1
  store ptr @.str.557, ptr %13, align 8
  store i8 3, ptr %41, align 8
  %43 = getelementptr inbounds nuw i8, ptr %14, i64 32
  store i16 257, ptr %43, align 8
  call void @_ZN5clang12MacroBuilder11defineMacroERKN4llvm5TwineES4_(ptr noundef nonnull align 8 dereferenceable(8) %3, ptr noundef nonnull align 8 dereferenceable(34) %13, ptr noundef nonnull align 8 dereferenceable(34) %14)
  %44 = getelementptr inbounds nuw i8, ptr %15, i64 32
  %45 = getelementptr inbounds nuw i8, ptr %15, i64 33
  store i8 1, ptr %45, align 1
  store ptr @.str.558, ptr %15, align 8
  store i8 3, ptr %44, align 8
  %46 = getelementptr inbounds nuw i8, ptr %16, i64 32
  %47 = getelementptr inbounds nuw i8, ptr %16, i64 33
  store i8 1, ptr %47, align 1
  store ptr @.str.14, ptr %16, align 8
  store i8 3, ptr %46, align 8
  call void @_ZN5clang12MacroBuilder11defineMacroERKN4llvm5TwineES4_(ptr noundef nonnull align 8 dereferenceable(8) %3, ptr noundef nonnull align 8 dereferenceable(34) %15, ptr noundef nonnull align 8 dereferenceable(34) %16)
  %48 = getelementptr inbounds nuw i8, ptr %17, i64 32
  %49 = getelementptr inbounds nuw i8, ptr %17, i64 33
  store i8 1, ptr %49, align 1
  store ptr @.str.559, ptr %17, align 8
  store i8 3, ptr %48, align 8
  %50 = getelementptr inbounds nuw i8, ptr %18, i64 32
  %51 = getelementptr inbounds nuw i8, ptr %18, i64 33
  store i8 1, ptr %51, align 1
  store ptr @.str.14, ptr %18, align 8
  store i8 3, ptr %50, align 8
  call void @_ZN5clang12MacroBuilder11defineMacroERKN4llvm5TwineES4_(ptr noundef nonnull align 8 dereferenceable(8) %3, ptr noundef nonnull align 8 dereferenceable(34) %17, ptr noundef nonnull align 8 dereferenceable(34) %18)
  %52 = getelementptr inbounds nuw i8, ptr %2, i64 32
  %53 = load i32, ptr %52, align 8
  %54 = icmp eq i32 %53, 3
  %55 = getelementptr inbounds nuw i8, ptr %2, i64 36
  %56 = load i32, ptr %55, align 4
  %57 = icmp eq i32 %56, 34
  %58 = select i1 %54, i1 %57, i1 false
  br i1 %58, label %59, label %64

59:                                               ; preds = %36
  %60 = getelementptr inbounds nuw i8, ptr %19, i64 32
  %61 = getelementptr inbounds nuw i8, ptr %19, i64 33
  store i8 1, ptr %61, align 1
  store ptr @.str.560, ptr %19, align 8
  store i8 3, ptr %60, align 8
  %62 = getelementptr inbounds nuw i8, ptr %20, i64 32
  %63 = getelementptr inbounds nuw i8, ptr %20, i64 33
  store i8 1, ptr %63, align 1
  store ptr @.str.14, ptr %20, align 8
  store i8 3, ptr %62, align 8
  call void @_ZN5clang12MacroBuilder11defineMacroERKN4llvm5TwineES4_(ptr noundef nonnull align 8 dereferenceable(8) %3, ptr noundef nonnull align 8 dereferenceable(34) %19, ptr noundef nonnull align 8 dereferenceable(34) %20)
  br label %64

64:                                               ; preds = %59, %36
  %65 = getelementptr inbounds nuw i8, ptr %0, i64 352
  %66 = getelementptr inbounds nuw i8, ptr %0, i64 368
  call void @_ZN5clang7targets16getDarwinDefinesERNS_12MacroBuilderERKNS_11LangOptionsERKN4llvm6TripleERNS6_9StringRefERNS6_12VersionTupleE(ptr noundef nonnull align 8 dereferenceable(8) %3, ptr noundef nonnull align 8 dereferenceable(841) %1, ptr noundef nonnull align 8 dereferenceable(56) %2, ptr noundef nonnull align 8 dereferenceable(16) %65, ptr noundef nonnull align 4 dereferenceable(16) %66) #23
  ret void
}